target datalayout = "e-m:e-p270:32:32-p271:32:32-p272:64:64-i64:64-i128:128-f80:128-n8:16:32:64-S128"
target triple = "x86_64-pc-linux-gnu"

; Function Attrs: nounwind uwtable
define void @stb_include_itoa(ptr noundef %0, i32 noundef %1) #0 {
  %3 = alloca ptr, align 8
  %4 = alloca i32, align 4
  %5 = alloca i32, align 4
  store ptr %0, ptr %3, align 8, !tbaa !3
  store i32 %1, ptr %4, align 4, !tbaa !16
  call void @llvm.lifetime.start.p0(i64 4, ptr %5) #8
  store i32 0, ptr %5, align 4, !tbaa !16
  br label %6

6:                                                ; preds = %14, %2
  %7 = load i32, ptr %5, align 4, !tbaa !16
  %8 = icmp slt i32 %7, 8
  br i1 %8, label %9, label %17

9:                                                ; preds = %6
  %10 = load ptr, ptr %3, align 8, !tbaa !3
  %11 = load i32, ptr %5, align 4, !tbaa !16
  %12 = sext i32 %11 to i64
  %13 = getelementptr inbounds i8, ptr %10, i64 %12
  store i8 32, ptr %13, align 1, !tbaa !14
  br label %14

14:                                               ; preds = %9
  %15 = load i32, ptr %5, align 4, !tbaa !16
  %16 = add nsw i32 %15, 1
  store i32 %16, ptr %5, align 4, !tbaa !16
  br label %6, !llvm.loop !33

17:                                               ; preds = %6
  %18 = load ptr, ptr %3, align 8, !tbaa !3
  %19 = load i32, ptr %5, align 4, !tbaa !16
  %20 = sext i32 %19 to i64
  %21 = getelementptr inbounds i8, ptr %18, i64 %20
  store i8 0, ptr %21, align 1, !tbaa !14
  store i32 1, ptr %5, align 4, !tbaa !16
  br label %22

22:                                               ; preds = %41, %17
  %23 = load i32, ptr %5, align 4, !tbaa !16
  %24 = icmp slt i32 %23, 8
  br i1 %24, label %25, label %44

25:                                               ; preds = %22
  %26 = load i32, ptr %4, align 4, !tbaa !16
  %27 = srem i32 %26, 10
  %28 = add nsw i32 48, %27
  %29 = trunc i32 %28 to i8
  %30 = load ptr, ptr %3, align 8, !tbaa !3
  %31 = load i32, ptr %5, align 4, !tbaa !16
  %32 = sub nsw i32 7, %31
  %33 = sext i32 %32 to i64
  %34 = getelementptr inbounds i8, ptr %30, i64 %33
  store i8 %29, ptr %34, align 1, !tbaa !14
  %35 = load i32, ptr %4, align 4, !tbaa !16
  %36 = sdiv i32 %35, 10
  store i32 %36, ptr %4, align 4, !tbaa !16
  %37 = load i32, ptr %4, align 4, !tbaa !16
  %38 = icmp eq i32 %37, 0
  br i1 %38, label %39, label %40

39:                                               ; preds = %25
  br label %44

40:                                               ; preds = %25
  br label %41

41:                                               ; preds = %40
  %42 = load i32, ptr %5, align 4, !tbaa !16
  %43 = add nsw i32 %42, 1
  store i32 %43, ptr %5, align 4, !tbaa !16
  br label %22, !llvm.loop !34

44:                                               ; preds = %39, %22
  call void @llvm.lifetime.end.p0(i64 4, ptr %5) #8
  ret void
}