; Function Attrs: nofree norecurse nosync nounwind memory(argmem: write) uwtable
define void @stb_include_itoa(ptr noundef writeonly captures(none) initializes((0, 9)) %0, i32 noundef %1) local_unnamed_addr #11 {
  store i64 2314885530818453536, ptr %0, align 1
  %3 = getelementptr inbounds nuw i8, ptr %0, i64 8
  store i8 0, ptr %3, align 1, !tbaa !7
  br label %4

4:                                                ; preds = %4, %2
  %indvars.iv = phi i64 [ 1, %2 ], [ %indvars.iv.next, %4 ]
  %.01215 = phi i32 [ %1, %2 ], [ %6, %4 ]
  %5 = srem i32 %.01215, 10
  %6 = sdiv i32 %.01215, 10
  %7 = trunc nsw i32 %5 to i8
  %8 = add nsw i8 %7, 48
  %9 = sub nuw nsw i64 7, %indvars.iv
  %10 = getelementptr inbounds nuw i8, ptr %0, i64 %9
  store i8 %8, ptr %10, align 1, !tbaa !7
  %.012.off = add i32 %.01215, 9
  %11 = icmp ult i32 %.012.off, 19
  %indvars.iv.next = add nuw nsw i64 %indvars.iv, 1
  %exitcond.not = icmp eq i64 %indvars.iv.next, 8
  %or.cond = select i1 %11, i1 true, i1 %exitcond.not
  br i1 %or.cond, label %12, label %4, !llvm.loop !27

12:                                               ; preds = %4
  ret void
}